; ModuleID = '63/879.c'
source_filename = "63/879.c"
target datalayout = "e-m:e-p270:32:32-p271:32:32-p272:64:64-i64:64-f80:128-n8:16:32:64-S128"
target triple = "x86_64-pc-linux-gnu"

@.str = private unnamed_addr constant [5 x i8] c"%d%d\00", align 1
@.str.1 = private unnamed_addr constant [3 x i8] c"%d\00", align 1
@.str.2 = private unnamed_addr constant [4 x i8] c"%d \00", align 1
@.str.3 = private unnamed_addr constant [4 x i8] c"%d\0A\00", align 1

; Function Attrs: noinline nounwind uwtable
define dso_local void @main() #0 {
  %1 = alloca i32, align 4
  %2 = alloca i32, align 4
  %3 = alloca i32, align 4
  %4 = alloca i32, align 4
  %5 = alloca [100 x [100 x i32]], align 16
  %6 = alloca [100 x [100 x i32]], align 16
  %7 = alloca [100 x [100 x i32]], align 16
  %8 = alloca i32, align 4
  %9 = alloca i32, align 4
  %10 = alloca i32, align 4
  %11 = call i32 (i8*, ...) @__isoc99_scanf(i8* getelementptr inbounds ([5 x i8], [5 x i8]* @.str, i64 0, i64 0), i32* %1, i32* %2)
  store i32 0, i32* %8, align 4
  br label %12

12:                                               ; preds = %33, %0
  %13 = load i32, i32* %8, align 4
  %14 = load i32, i32* %1, align 4
  %15 = icmp slt i32 %13, %14
  br i1 %15, label %16, label %36

16:                                               ; preds = %12
  store i32 0, i32* %9, align 4
  br label %17

17:                                               ; preds = %29, %16
  %18 = load i32, i32* %9, align 4
  %19 = load i32, i32* %2, align 4
  %20 = icmp slt i32 %18, %19
  br i1 %20, label %21, label %32

21:                                               ; preds = %17
  %22 = load i32, i32* %8, align 4
  %23 = sext i32 %22 to i64
  %24 = getelementptr inbounds [100 x [100 x i32]], [100 x [100 x i32]]* %5, i64 0, i64 %23
  %25 = load i32, i32* %9, align 4
  %26 = sext i32 %25 to i64
  %27 = getelementptr inbounds [100 x i32], [100 x i32]* %24, i64 0, i64 %26
  %28 = call i32 (i8*, ...) @__isoc99_scanf(i8* getelementptr inbounds ([3 x i8], [3 x i8]* @.str.1, i64 0, i64 0), i32* %27)
  br label %29

29:                                               ; preds = %21
  %30 = load i32, i32* %9, align 4
  %31 = add nsw i32 %30, 1
  store i32 %31, i32* %9, align 4
  br label %17

32:                                               ; preds = %17
  br label %33

33:                                               ; preds = %32
  %34 = load i32, i32* %8, align 4
  %35 = add nsw i32 %34, 1
  store i32 %35, i32* %8, align 4
  br label %12

36:                                               ; preds = %12
  %37 = call i32 (i8*, ...) @__isoc99_scanf(i8* getelementptr inbounds ([5 x i8], [5 x i8]* @.str, i64 0, i64 0), i32* %3, i32* %4)
  store i32 0, i32* %8, align 4
  br label %38

38:                                               ; preds = %59, %36
  %39 = load i32, i32* %8, align 4
  %40 = load i32, i32* %3, align 4
  %41 = icmp slt i32 %39, %40
  br i1 %41, label %42, label %62

42:                                               ; preds = %38
  store i32 0, i32* %9, align 4
  br label %43

43:                                               ; preds = %55, %42
  %44 = load i32, i32* %9, align 4
  %45 = load i32, i32* %4, align 4
  %46 = icmp slt i32 %44, %45
  br i1 %46, label %47, label %58

47:                                               ; preds = %43
  %48 = load i32, i32* %8, align 4
  %49 = sext i32 %48 to i64
  %50 = getelementptr inbounds [100 x [100 x i32]], [100 x [100 x i32]]* %6, i64 0, i64 %49
  %51 = load i32, i32* %9, align 4
  %52 = sext i32 %51 to i64
  %53 = getelementptr inbounds [100 x i32], [100 x i32]* %50, i64 0, i64 %52
  %54 = call i32 (i8*, ...) @__isoc99_scanf(i8* getelementptr inbounds ([3 x i8], [3 x i8]* @.str.1, i64 0, i64 0), i32* %53)
  br label %55

55:                                               ; preds = %47
  %56 = load i32, i32* %9, align 4
  %57 = add nsw i32 %56, 1
  store i32 %57, i32* %9, align 4
  br label %43

58:                                               ; preds = %43
  br label %59

59:                                               ; preds = %58
  %60 = load i32, i32* %8, align 4
  %61 = add nsw i32 %60, 1
  store i32 %61, i32* %8, align 4
  br label %38

62:                                               ; preds = %38
  store i32 0, i32* %8, align 4
  br label %63

63:                                               ; preds = %81, %62
  %64 = load i32, i32* %8, align 4
  %65 = icmp slt i32 %64, 100
  br i1 %65, label %66, label %84

66:                                               ; preds = %63
  store i32 0, i32* %9, align 4
  br label %67

67:                                               ; preds = %77, %66
  %68 = load i32, i32* %9, align 4
  %69 = icmp slt i32 %68, 100
  br i1 %69, label %70, label %80

70:                                               ; preds = %67
  %71 = load i32, i32* %8, align 4
  %72 = sext i32 %71 to i64
  %73 = getelementptr inbounds [100 x [100 x i32]], [100 x [100 x i32]]* %7, i64 0, i64 %72
  %74 = load i32, i32* %9, align 4
  %75 = sext i32 %74 to i64
  %76 = getelementptr inbounds [100 x i32], [100 x i32]* %73, i64 0, i64 %75
  store i32 0, i32* %76, align 4
  br label %77

77:                                               ; preds = %70
  %78 = load i32, i32* %9, align 4
  %79 = add nsw i32 %78, 1
  store i32 %79, i32* %9, align 4
  br label %67

80:                                               ; preds = %67
  br label %81

81:                                               ; preds = %80
  %82 = load i32, i32* %8, align 4
  %83 = add nsw i32 %82, 1
  store i32 %83, i32* %8, align 4
  br label %63

84:                                               ; preds = %63
  store i32 0, i32* %8, align 4
  br label %85

85:                                               ; preds = %137, %84
  %86 = load i32, i32* %8, align 4
  %87 = load i32, i32* %1, align 4
  %88 = icmp slt i32 %86, %87
  br i1 %88, label %89, label %140

89:                                               ; preds = %85
  store i32 0, i32* %9, align 4
  br label %90

90:                                               ; preds = %133, %89
  %91 = load i32, i32* %9, align 4
  %92 = load i32, i32* %4, align 4
  %93 = icmp slt i32 %91, %92
  br i1 %93, label %94, label %136

94:                                               ; preds = %90
  store i32 0, i32* %10, align 4
  br label %95

95:                                               ; preds = %129, %94
  %96 = load i32, i32* %10, align 4
  %97 = load i32, i32* %3, align 4
  %98 = icmp slt i32 %96, %97
  br i1 %98, label %99, label %132

99:                                               ; preds = %95
  %100 = load i32, i32* %8, align 4
  %101 = sext i32 %100 to i64
  %102 = getelementptr inbounds [100 x [100 x i32]], [100 x [100 x i32]]* %7, i64 0, i64 %101
  %103 = load i32, i32* %9, align 4
  %104 = sext i32 %103 to i64
  %105 = getelementptr inbounds [100 x i32], [100 x i32]* %102, i64 0, i64 %104
  %106 = load i32, i32* %105, align 4
  %107 = load i32, i32* %8, align 4
  %108 = sext i32 %107 to i64
  %109 = getelementptr inbounds [100 x [100 x i32]], [100 x [100 x i32]]* %5, i64 0, i64 %108
  %110 = load i32, i32* %10, align 4
  %111 = sext i32 %110 to i64
  %112 = getelementptr inbounds [100 x i32], [100 x i32]* %109, i64 0, i64 %111
  %113 = load i32, i32* %112, align 4
  %114 = load i32, i32* %10, align 4
  %115 = sext i32 %114 to i64
  %116 = getelementptr inbounds [100 x [100 x i32]], [100 x [100 x i32]]* %6, i64 0, i64 %115
  %117 = load i32, i32* %9, align 4
  %118 = sext i32 %117 to i64
  %119 = getelementptr inbounds [100 x i32], [100 x i32]* %116, i64 0, i64 %118
  %120 = load i32, i32* %119, align 4
  %121 = mul nsw i32 %113, %120
  %122 = add nsw i32 %106, %121
  %123 = load i32, i32* %8, align 4
  %124 = sext i32 %123 to i64
  %125 = getelementptr inbounds [100 x [100 x i32]], [100 x [100 x i32]]* %7, i64 0, i64 %124
  %126 = load i32, i32* %9, align 4
  %127 = sext i32 %126 to i64
  %128 = getelementptr inbounds [100 x i32], [100 x i32]* %125, i64 0, i64 %127
  store i32 %122, i32* %128, align 4
  br label %129

129:                                              ; preds = %99
  %130 = load i32, i32* %10, align 4
  %131 = add nsw i32 %130, 1
  store i32 %131, i32* %10, align 4
  br label %95

132:                                              ; preds = %95
  br label %133

133:                                              ; preds = %132
  %134 = load i32, i32* %9, align 4
  %135 = add nsw i32 %134, 1
  store i32 %135, i32* %9, align 4
  br label %90

136:                                              ; preds = %90
  br label %137

137:                                              ; preds = %136
  %138 = load i32, i32* %8, align 4
  %139 = add nsw i32 %138, 1
  store i32 %139, i32* %8, align 4
  br label %85

140:                                              ; preds = %85
  store i32 0, i32* %8, align 4
  br label %141

141:                                              ; preds = %173, %140
  %142 = load i32, i32* %8, align 4
  %143 = load i32, i32* %1, align 4
  %144 = icmp slt i32 %142, %143
  br i1 %144, label %145, label %176

145:                                              ; preds = %141
  store i32 0, i32* %9, align 4
  br label %146

146:                                              ; preds = %160, %145
  %147 = load i32, i32* %9, align 4
  %148 = load i32, i32* %4, align 4
  %149 = sub nsw i32 %148, 1
  %150 = icmp slt i32 %147, %149
  br i1 %150, label %151, label %163

151:                                              ; preds = %146
  %152 = load i32, i32* %8, align 4
  %153 = sext i32 %152 to i64
  %154 = getelementptr inbounds [100 x [100 x i32]], [100 x [100 x i32]]* %7, i64 0, i64 %153
  %155 = load i32, i32* %9, align 4
  %156 = sext i32 %155 to i64
  %157 = getelementptr inbounds [100 x i32], [100 x i32]* %154, i64 0, i64 %156
  %158 = load i32, i32* %157, align 4
  %159 = call i32 (i8*, ...) @printf(i8* getelementptr inbounds ([4 x i8], [4 x i8]* @.str.2, i64 0, i64 0), i32 %158)
  br label %160

160:                                              ; preds = %151
  %161 = load i32, i32* %9, align 4
  %162 = add nsw i32 %161, 1
  store i32 %162, i32* %9, align 4
  br label %146

163:                                              ; preds = %146
  %164 = load i32, i32* %8, align 4
  %165 = sext i32 %164 to i64
  %166 = getelementptr inbounds [100 x [100 x i32]], [100 x [100 x i32]]* %7, i64 0, i64 %165
  %167 = load i32, i32* %4, align 4
  %168 = sub nsw i32 %167, 1
  %169 = sext i32 %168 to i64
  %170 = getelementptr inbounds [100 x i32], [100 x i32]* %166, i64 0, i64 %169
  %171 = load i32, i32* %170, align 4
  %172 = call i32 (i8*, ...) @printf(i8* getelementptr inbounds ([4 x i8], [4 x i8]* @.str.3, i64 0, i64 0), i32 %171)
  br label %173

173:                                              ; preds = %163
  %174 = load i32, i32* %8, align 4
  %175 = add nsw i32 %174, 1
  store i32 %175, i32* %8, align 4
  br label %141

176:                                              ; preds = %141
  ret void
}

declare dso_local i32 @__isoc99_scanf(i8*, ...) #1

declare dso_local i32 @printf(i8*, ...) #1


!llvm.module.flags = !{!0}
!llvm.ident = !{!1}

!0 = !{i32 1, !"wchar_size", i32 4}
!1 = !{!"clang version 10.0.0-4ubuntu1 "}
